; Function Attrs: inlinehint nounwind uwtable
define internal fastcc void @malloc_mutex_lock(ptr noundef %0, ptr noundef %1) unnamed_addr #2 {
tsdn_witness_tsdp_get.exit:
  %2 = getelementptr inbounds nuw i8, ptr %1, i64 72
  %3 = tail call i32 @pthread_mutex_trylock(ptr noundef nonnull %2) #12
  %.not = icmp eq i32 %3, 0
  br i1 %.not, label %malloc_mutex_trylock_final.exit, label %5

malloc_mutex_trylock_final.exit:                  ; preds = %tsdn_witness_tsdp_get.exit
  %4 = getelementptr inbounds nuw i8, ptr %1, i64 64
  store atomic i8 1, ptr %4 monotonic, align 1
  br label %6

5:                                                ; preds = %tsdn_witness_tsdp_get.exit
  tail call void @je_malloc_mutex_lock_slow(ptr noundef nonnull %1) #12
  br label %6

6:                                                ; preds = %malloc_mutex_trylock_final.exit, %5
  %7 = getelementptr inbounds nuw i8, ptr %1, i64 56
  %8 = load i64, ptr %7, align 8, !tbaa !8
  %9 = add i64 %8, 1
  store i64 %9, ptr %7, align 8, !tbaa !8
  %10 = getelementptr inbounds nuw i8, ptr %1, i64 48
  %11 = load ptr, ptr %10, align 8, !tbaa !15
  %.not.i = icmp eq ptr %11, %0
  br i1 %.not.i, label %mutex_owner_stats_update.exit, label %12

12:                                               ; preds = %6
  store ptr %0, ptr %10, align 8, !tbaa !15
  %13 = getelementptr inbounds nuw i8, ptr %1, i64 40
  %14 = load i64, ptr %13, align 8, !tbaa !16
  %15 = add i64 %14, 1
  store i64 %15, ptr %13, align 8, !tbaa !16
  br label %mutex_owner_stats_update.exit

mutex_owner_stats_update.exit:                    ; preds = %6, %12
  ret void
}